target datalayout = "e-m:e-p270:32:32-p271:32:32-p272:64:64-i64:64-i128:128-f80:128-n8:16:32:64-S128"
target triple = "x86_64-pc-linux-gnu"

%struct._packet_info = type { ptr, ptr, i32, i32, %struct.nstime_t, %struct.nstime_t, %struct.nstime_t, i8, ptr, ptr, ptr, ptr, %struct._address, %struct._address, %struct._address, %struct._address, %struct._address, %struct._address, i32, ptr, i8, [3 x i8], %struct.anon, i32, i32, i32, i32, ptr, i8, ptr, ptr, i16, i16, i32, i32, i16, i32, i32, ptr, ptr, ptr, i8, i8, i16, i16, i16, i32, i16, i16, ptr, ptr, ptr, ptr, ptr, i32, i32 }
%struct.nstime_t = type { i64, i32 }
%struct._address = type { i32, i32, ptr, ptr }
%struct.anon = type { i8, [3 x i8] }
%struct.pdcp_lte_info = type { i8, i16, i32, i16, i32, i8, i32, i8, %struct.rohc_info, i8, i16 }
%struct.rohc_info = type { i8, i8, i8, i8, i32, i8, i8, i16, ptr }

@.str.67 = private unnamed_addr constant [9 x i8] c"pdcp-lte\00", align 1
@.str.172 = private unnamed_addr constant [2 x i8] c" \00", align 1
@lte_pdcp_pseudo_hdr.proto_pdcp_lte = internal global i32 0, align 4
@.str.181 = private unnamed_addr constant [4 x i8] c"SRB\00", align 1
@.str.182 = private unnamed_addr constant [4 x i8] c"DRB\00", align 1
@.str.183 = private unnamed_addr constant [6 x i8] c"SN_7b\00", align 1
@.str.184 = private unnamed_addr constant [7 x i8] c"SN_12b\00", align 1

; Function Attrs: null_pointer_is_valid sspstrong uwtable
define internal zeroext i1 @lte_pdcp_pseudo_hdr(ptr noundef %0, ptr noundef %1, i16 noundef zeroext %2, i32 noundef %3) #0 {
  %5 = alloca i1, align 1
  %6 = alloca ptr, align 8
  %7 = alloca ptr, align 8
  %8 = alloca i16, align 2
  %9 = alloca i32, align 4
  %10 = alloca ptr, align 8
  %11 = alloca ptr, align 8
  %12 = alloca [30 x i8], align 16
  %13 = alloca i32, align 4
  store ptr %0, ptr %6, align 8
  store ptr %1, ptr %7, align 8
  store i16 %2, ptr %8, align 2
  store i32 %3, ptr %9, align 4
  call void @llvm.lifetime.start.p0(i64 8, ptr %10) #9
  call void @llvm.lifetime.start.p0(i64 8, ptr %11) #9
  call void @llvm.lifetime.start.p0(i64 30, ptr %12) #9
  %14 = load i32, ptr @lte_pdcp_pseudo_hdr.proto_pdcp_lte, align 4
  %15 = icmp eq i32 %14, 0
  br i1 %15, label %16, label %18

16:                                               ; preds = %4
  %17 = call i32 @proto_get_id_by_filter_name(ptr noundef @.str.67)
  store i32 %17, ptr @lte_pdcp_pseudo_hdr.proto_pdcp_lte, align 4
  br label %18

18:                                               ; preds = %16, %4
  %19 = getelementptr inbounds [30 x i8], ptr %12, i64 0, i64 0
  %20 = load ptr, ptr %6, align 8
  %21 = call i64 @g_strlcpy(ptr noundef %19, ptr noundef %20, i64 noundef 30)
  %22 = call ptr @wmem_file_scope()
  %23 = load ptr, ptr %7, align 8
  %24 = load i32, ptr @lte_pdcp_pseudo_hdr.proto_pdcp_lte, align 4
  %25 = call ptr @p_get_proto_data(ptr noundef %22, ptr noundef %23, i32 noundef %24, i32 noundef 0)
  store ptr %25, ptr %10, align 8
  %26 = load ptr, ptr %10, align 8
  %27 = icmp ne ptr %26, null
  br i1 %27, label %28, label %29

28:                                               ; preds = %18
  store i1 true, ptr %5, align 1
  store i32 1, ptr %13, align 4
  br label %92

29:                                               ; preds = %18
  %30 = load ptr, ptr %7, align 8
  %31 = getelementptr inbounds nuw %struct._packet_info, ptr %30, i32 0, i32 51
  %32 = load ptr, ptr %31, align 8
  %33 = call noalias ptr @wmem_alloc0(ptr noundef %32, i64 noundef 64) #11
  store ptr %33, ptr %10, align 8
  %34 = getelementptr inbounds [30 x i8], ptr %12, i64 0, i64 0
  %35 = call ptr @strtok(ptr noundef %34, ptr noundef @.str.172) #9
  store ptr %35, ptr %11, align 8
  %36 = load ptr, ptr %11, align 8
  %37 = icmp eq ptr %36, null
  br i1 %37, label %38, label %39

38:                                               ; preds = %29
  store i1 false, ptr %5, align 1
  store i32 1, ptr %13, align 4
  br label %92

39:                                               ; preds = %29
  %40 = load ptr, ptr %11, align 8
  %41 = call i32 @strcmp(ptr noundef %40, ptr noundef @.str.181) #10
  %42 = icmp eq i32 %41, 0
  br i1 %42, label %43, label %46

43:                                               ; preds = %39
  %44 = load ptr, ptr %10, align 8
  %45 = getelementptr inbounds nuw %struct.pdcp_lte_info, ptr %44, i32 0, i32 6
  store i32 1, ptr %45, align 4
  br label %55

46:                                               ; preds = %39
  %47 = load ptr, ptr %11, align 8
  %48 = call i32 @strcmp(ptr noundef %47, ptr noundef @.str.182) #10
  %49 = icmp eq i32 %48, 0
  br i1 %49, label %50, label %53

50:                                               ; preds = %46
  %51 = load ptr, ptr %10, align 8
  %52 = getelementptr inbounds nuw %struct.pdcp_lte_info, ptr %51, i32 0, i32 6
  store i32 2, ptr %52, align 4
  br label %54

53:                                               ; preds = %46
  store i1 false, ptr %5, align 1
  store i32 1, ptr %13, align 4
  br label %92

54:                                               ; preds = %50
  br label %55

55:                                               ; preds = %54, %43
  %56 = call ptr @strtok(ptr noundef null, ptr noundef @.str.172) #9
  store ptr %56, ptr %11, align 8
  %57 = load ptr, ptr %11, align 8
  %58 = icmp eq ptr %57, null
  br i1 %58, label %59, label %60

59:                                               ; preds = %55
  store i1 false, ptr %5, align 1
  store i32 1, ptr %13, align 4
  br label %92

60:                                               ; preds = %55
  %61 = load ptr, ptr %11, align 8
  %62 = call i32 @strcmp(ptr noundef %61, ptr noundef @.str.183) #10
  %63 = icmp eq i32 %62, 0
  br i1 %63, label %64, label %67

64:                                               ; preds = %60
  %65 = load ptr, ptr %10, align 8
  %66 = getelementptr inbounds nuw %struct.pdcp_lte_info, ptr %65, i32 0, i32 7
  store i8 7, ptr %66, align 8
  br label %76

67:                                               ; preds = %60
  %68 = load ptr, ptr %11, align 8
  %69 = call i32 @strcmp(ptr noundef %68, ptr noundef @.str.184) #10
  %70 = icmp eq i32 %69, 0
  br i1 %70, label %71, label %74

71:                                               ; preds = %67
  %72 = load ptr, ptr %10, align 8
  %73 = getelementptr inbounds nuw %struct.pdcp_lte_info, ptr %72, i32 0, i32 7
  store i8 12, ptr %73, align 8
  br label %75

74:                                               ; preds = %67
  store i1 false, ptr %5, align 1
  store i32 1, ptr %13, align 4
  br label %92

75:                                               ; preds = %71
  br label %76

76:                                               ; preds = %75, %64
  %77 = load ptr, ptr %10, align 8
  %78 = getelementptr inbounds nuw %struct.pdcp_lte_info, ptr %77, i32 0, i32 5
  store i8 0, ptr %78, align 8
  %79 = load ptr, ptr %10, align 8
  %80 = getelementptr inbounds nuw %struct.pdcp_lte_info, ptr %79, i32 0, i32 8
  %81 = getelementptr inbounds nuw %struct.rohc_info, ptr %80, i32 0, i32 0
  store i8 0, ptr %81, align 8
  %82 = load i32, ptr %9, align 4
  %83 = icmp eq i32 %82, 0
  %84 = select i1 %83, i32 0, i32 1
  %85 = trunc i32 %84 to i8
  %86 = load ptr, ptr %10, align 8
  %87 = getelementptr inbounds nuw %struct.pdcp_lte_info, ptr %86, i32 0, i32 0
  store i8 %85, ptr %87, align 8
  %88 = call ptr @wmem_file_scope()
  %89 = load ptr, ptr %7, align 8
  %90 = load i32, ptr @lte_pdcp_pseudo_hdr.proto_pdcp_lte, align 4
  %91 = load ptr, ptr %10, align 8
  call void @p_add_proto_data(ptr noundef %88, ptr noundef %89, i32 noundef %90, i32 noundef 0, ptr noundef %91)
  store i1 true, ptr %5, align 1
  store i32 1, ptr %13, align 4
  br label %92

92:                                               ; preds = %76, %74, %59, %53, %38, %28
  call void @llvm.lifetime.end.p0(i64 30, ptr %12) #9
  call void @llvm.lifetime.end.p0(i64 8, ptr %11) #9
  call void @llvm.lifetime.end.p0(i64 8, ptr %10) #9
  %93 = load i1, ptr %5, align 1
  ret i1 %93
}