; Function Attrs: null_pointer_is_valid sspstrong uwtable
define internal noundef zeroext i1 @lte_pdcp_pseudo_hdr(ptr noundef %0, ptr noundef %1, i16 zeroext %2, i32 noundef %3) #0 {
  %5 = alloca [30 x i8], align 16
  call void @llvm.lifetime.start.p0(i64 30, ptr nonnull %5) #7
  %6 = load i32, ptr @lte_pdcp_pseudo_hdr.proto_pdcp_lte, align 4
  %7 = icmp eq i32 %6, 0
  br i1 %7, label %8, label %10

8:                                                ; preds = %4
  %9 = tail call i32 @proto_get_id_by_filter_name(ptr noundef nonnull @.str.67)
  store i32 %9, ptr @lte_pdcp_pseudo_hdr.proto_pdcp_lte, align 4
  br label %10

10:                                               ; preds = %8, %4
  %11 = call i64 @g_strlcpy(ptr noundef nonnull %5, ptr noundef %0, i64 noundef 30)
  %12 = call ptr @wmem_file_scope()
  %13 = load i32, ptr @lte_pdcp_pseudo_hdr.proto_pdcp_lte, align 4
  %14 = call ptr @p_get_proto_data(ptr noundef %12, ptr noundef %1, i32 noundef %13, i32 noundef 0)
  %.not = icmp eq ptr %14, null
  br i1 %.not, label %15, label %45

15:                                               ; preds = %10
  %16 = getelementptr inbounds nuw i8, ptr %1, i64 408
  %17 = load ptr, ptr %16, align 8
  %18 = call noalias dereferenceable_or_null(64) ptr @wmem_alloc0(ptr noundef %17, i64 noundef 64) #8
  %19 = call ptr @strtok(ptr noundef nonnull %5, ptr noundef nonnull @.str.172) #7
  %20 = icmp eq ptr %19, null
  br i1 %20, label %45, label %21

21:                                               ; preds = %15
  %22 = call i32 @strcmp(ptr noundef nonnull dereferenceable(1) %19, ptr noundef nonnull dereferenceable(4) @.str.181) #6
  %23 = icmp eq i32 %22, 0
  br i1 %23, label %27, label %24

24:                                               ; preds = %21
  %25 = call i32 @strcmp(ptr noundef nonnull dereferenceable(1) %19, ptr noundef nonnull dereferenceable(4) @.str.182) #6
  %26 = icmp eq i32 %25, 0
  br i1 %26, label %27, label %45

27:                                               ; preds = %24, %21
  %.sink = phi i32 [ 1, %21 ], [ 2, %24 ]
  %28 = getelementptr inbounds nuw i8, ptr %18, i64 20
  store i32 %.sink, ptr %28, align 4
  %29 = call ptr @strtok(ptr noundef null, ptr noundef nonnull @.str.172) #7
  %30 = icmp eq ptr %29, null
  br i1 %30, label %45, label %31

31:                                               ; preds = %27
  %32 = call i32 @strcmp(ptr noundef nonnull dereferenceable(1) %29, ptr noundef nonnull dereferenceable(6) @.str.183) #6
  %33 = icmp eq i32 %32, 0
  br i1 %33, label %37, label %34

34:                                               ; preds = %31
  %35 = call i32 @strcmp(ptr noundef nonnull dereferenceable(1) %29, ptr noundef nonnull dereferenceable(7) @.str.184) #6
  %36 = icmp eq i32 %35, 0
  br i1 %36, label %37, label %45

37:                                               ; preds = %34, %31
  %.sink23 = phi i8 [ 7, %31 ], [ 12, %34 ]
  %38 = getelementptr inbounds nuw i8, ptr %18, i64 24
  store i8 %.sink23, ptr %38, align 8
  %39 = getelementptr inbounds nuw i8, ptr %18, i64 16
  store i8 0, ptr %39, align 8
  %40 = getelementptr inbounds nuw i8, ptr %18, i64 32
  store i8 0, ptr %40, align 8
  %41 = icmp ne i32 %3, 0
  %42 = zext i1 %41 to i8
  store i8 %42, ptr %18, align 8
  %43 = call ptr @wmem_file_scope()
  %44 = load i32, ptr @lte_pdcp_pseudo_hdr.proto_pdcp_lte, align 4
  call void @p_add_proto_data(ptr noundef %43, ptr noundef %1, i32 noundef %44, i32 noundef 0, ptr noundef %18)
  br label %45

45:                                               ; preds = %34, %27, %24, %15, %10, %37
  %.0 = phi i1 [ true, %37 ], [ true, %10 ], [ false, %15 ], [ false, %24 ], [ false, %27 ], [ false, %34 ]
  call void @llvm.lifetime.end.p0(i64 30, ptr nonnull %5) #7
  ret i1 %.0
}